Certificate:
    Data:
        Version: 3 (0x2)
        Serial Number: 3 (0x3)
        Signature Algorithm: sha256WithRSAEncryption
        Issuer: C=US, ST=CA, L=SanFrancisco, O=Fort-Funston, OU=DMOSK, CN=DMOSK/name=EasyRSA/emailAddress=zakaz@359831-ca13528.tmweb.ru
        Validity
            Not Before: Jan  4 10:53:39 2021 GMT
            Not After : Jan  2 10:53:39 2031 GMT
        Subject: C=BR, ST=RJ, L=RJ, O=RJ, OU=Jair, CN=huawey/name=EasyRSA/emailAddress=zakaz@359831-ca13528.tmweb.ru
        Subject Public Key Info:
            Public Key Algorithm: rsaEncryption
                RSA Public-Key: (2048 bit)
                Modulus:
                    00:ee:7a:6d:ba:05:6a:52:6c:54:12:c2:50:5e:53:
                    20:56:4e:5a:2d:8b:ac:9d:bd:25:52:77:09:c3:3f:
                    6d:a7:fb:f2:84:d6:cb:ed:21:27:08:dc:68:e1:4c:
                    8a:01:63:d6:9b:8c:96:70:31:eb:ad:22:bc:87:5c:
                    1e:7a:e4:b8:b8:6e:28:99:52:2b:84:5d:5c:18:cd:
                    74:81:9d:4c:54:61:4a:4e:e7:5a:0b:b4:fd:6a:5e:
                    f6:74:aa:6c:47:c8:de:88:18:11:a6:20:92:52:bd:
                    96:14:31:07:4d:32:b0:71:33:49:74:b2:f7:60:96:
                    af:11:ff:34:e8:47:7a:0b:8e:3b:e0:34:0c:a1:e6:
                    b0:42:e9:2e:8f:85:a0:a4:83:f8:d5:58:bc:2e:3c:
                    fc:29:90:79:b7:8e:7d:44:ca:8f:7f:6f:fc:1d:77:
                    48:fd:54:23:03:01:49:f4:7a:55:78:df:f3:9e:f1:
                    6b:d9:7a:91:63:0b:2c:f0:0e:0a:0e:54:e1:c5:e8:
                    0e:c8:ee:85:d8:2a:59:38:de:09:3b:70:a2:28:cf:
                    47:d8:c8:50:19:3d:d7:fa:29:0c:4a:f8:8c:c9:54:
                    7e:77:af:01:d0:c3:f3:89:de:00:28:3e:41:66:77:
                    de:87:cd:42:44:97:be:a3:69:cb:d8:10:2a:ce:be:
                    64:5f
                Exponent: 65537 (0x10001)
        X509v3 extensions:
            X509v3 Basic Constraints: 
                CA:FALSE
            Netscape Comment: 
                Easy-RSA Generated Certificate
            X509v3 Subject Key Identifier: 
                BF:50:82:2D:18:CC:71:0A:1A:37:B1:7E:13:82:8A:45:04:B4:99:61
            X509v3 Authority Key Identifier: 
                keyid:45:2B:D1:48:17:AE:94:D1:04:0C:AB:32:49:09:61:39:BF:A2:46:88
                DirName:/C=US/ST=CA/L=SanFrancisco/O=Fort-Funston/OU=DMOSK/CN=DMOSK/name=EasyRSA/emailAddress=zakaz@359831-ca13528.tmweb.ru
                serial:68:60:3D:21:74:DC:AE:50:D6:42:3D:E0:0C:EF:33:07:A8:3B:1B:EB

            X509v3 Extended Key Usage: 
                TLS Web Client Authentication
            X509v3 Key Usage: 
                Digital Signature
            X509v3 Subject Alternative Name: 
                DNS:huawey
    Signature Algorithm: sha256WithRSAEncryption
         19:5b:cd:8f:08:b5:6a:9e:04:f5:12:9a:8b:43:34:a0:d1:f5:
         14:31:ee:66:42:a7:83:68:fb:ca:4d:2f:8a:6d:6d:4a:d9:c5:
         f1:93:ab:bf:c5:6e:50:51:83:58:b5:1e:36:59:b2:17:80:77:
         b3:2c:b9:6a:4b:ab:63:92:13:7d:53:c1:fa:2d:50:da:6f:33:
         48:85:4b:f2:02:05:4d:19:82:6d:eb:b0:29:48:51:be:39:23:
         a8:78:81:6b:4a:f7:1b:6b:72:12:2b:44:47:4a:aa:a8:9e:1d:
         3a:71:69:6c:e6:5b:b9:24:c4:87:68:88:cc:59:c0:e4:49:12:
         2d:be:96:69:db:fc:87:89:b9:8c:57:4b:93:49:7d:17:c3:28:
         72:02:ac:fc:3b:35:00:8a:28:86:45:8b:80:90:f3:72:49:4e:
         fe:a8:c1:ff:d4:e1:5f:1d:48:bd:46:7c:a5:5b:50:cc:f2:be:
         6b:53:cd:29:e9:80:55:af:0e:b7:cb:45:6e:2b:26:e5:bc:a1:
         41:e0:63:ff:0e:25:c1:9a:88:f2:cb:3a:ad:0d:51:6b:d2:27:
         4f:df:ec:79:6a:c3:2a:d4:00:e8:ac:86:17:d9:ab:49:4a:ca:
         c6:b0:94:62:8d:c0:e3:4c:b8:91:e2:78:1b:a6:c1:6e:95:76:
         92:97:c8:cf
-----BEGIN CERTIFICATE-----
MIIFODCCBCCgAwIBAgIBAzANBgkqhkiG9w0BAQsFADCBqDELMAkGA1UEBhMCVVMx
CzAJBgNVBAgTAkNBMRUwEwYDVQQHEwxTYW5GcmFuY2lzY28xFTATBgNVBAoTDEZv
cnQtRnVuc3RvbjEOMAwGA1UECxMFRE1PU0sxDjAMBgNVBAMTBURNT1NLMRAwDgYD
VQQpEwdFYXN5UlNBMSwwKgYJKoZIhvcNAQkBFh16YWthekAzNTk4MzEtY2ExMzUy
OC50bXdlYi5ydTAeFw0yMTAxMDQxMDUzMzlaFw0zMTAxMDIxMDUzMzlaMIGUMQsw
CQYDVQQGEwJCUjELMAkGA1UECBMCUkoxCzAJBgNVBAcTAlJKMQswCQYDVQQKEwJS
SjENMAsGA1UECxMESmFpcjEPMA0GA1UEAxMGaHVhd2V5MRAwDgYDVQQpEwdFYXN5
UlNBMSwwKgYJKoZIhvcNAQkBFh16YWthekAzNTk4MzEtY2ExMzUyOC50bXdlYi5y
dTCCASIwDQYJKoZIhvcNAQEBBQADggEPADCCAQoCggEBAO56bboFalJsVBLCUF5T
IFZOWi2LrJ29JVJ3CcM/baf78oTWy+0hJwjcaOFMigFj1puMlnAx660ivIdcHnrk
uLhuKJlSK4RdXBjNdIGdTFRhSk7nWgu0/Wpe9nSqbEfI3ogYEaYgklK9lhQxB00y
sHEzSXSy92CWrxH/NOhHeguOO+A0DKHmsELpLo+FoKSD+NVYvC48/CmQebeOfUTK
j39v/B13SP1UIwMBSfR6VXjf857xa9l6kWMLLPAOCg5U4cXoDsjuhdgqWTjeCTtw
oijPR9jIUBk91/opDEr4jMlUfnevAdDD84neACg+QWZ33ofNQkSXvqNpy9gQKs6+
ZF8CAwEAAaOCAX0wggF5MAkGA1UdEwQCMAAwLQYJYIZIAYb4QgENBCAWHkVhc3kt
UlNBIEdlbmVyYXRlZCBDZXJ0aWZpY2F0ZTAdBgNVHQ4EFgQUv1CCLRjMcQoaN7F+
E4KKRQS0mWEwgegGA1UdIwSB4DCB3YAURSvRSBeulNEEDKsySQlhOb+iRoihga6k
gaswgagxCzAJBgNVBAYTAlVTMQswCQYDVQQIEwJDQTEVMBMGA1UEBxMMU2FuRnJh
bmNpc2NvMRUwEwYDVQQKEwxGb3J0LUZ1bnN0b24xDjAMBgNVBAsTBURNT1NLMQ4w
DAYDVQQDEwVETU9TSzEQMA4GA1UEKRMHRWFzeVJTQTEsMCoGCSqGSIb3DQEJARYd
emFrYXpAMzU5ODMxLWNhMTM1MjgudG13ZWIucnWCFGhgPSF03K5Q1kI94AzvMweo
OxvrMBMGA1UdJQQMMAoGCCsGAQUFBwMCMAsGA1UdDwQEAwIHgDARBgNVHREECjAI
ggZodWF3ZXkwDQYJKoZIhvcNAQELBQADggEBABlbzY8ItWqeBPUSmotDNKDR9RQx
7mZCp4No+8pNL4ptbUrZxfGTq7/FblBRg1i1HjZZsheAd7MsuWpLq2OSE31Twfot
UNpvM0iFS/ICBU0Zgm3rsClIUb45I6h4gWtK9xtrchIrREdKqqieHTpxaWzmW7kk
xIdoiMxZwORJEi2+lmnb/IeJuYxXS5NJfRfDKHICrPw7NQCKKIZFi4CQ83JJTv6o
wf/U4V8dSL1GfKVbUMzyvmtTzSnpgFWvDrfLRW4rJuW8oUHgY/8OJcGaiPLLOq0N
UWvSJ0/f7HlqwyrUAOishhfZq0lKysawlGKNwONMuJHieBumwW6VdpKXyM8=
-----END CERTIFICATE-----
