Certificate:
    Data:
        Version: 3 (0x2)
        Serial Number: 4 (0x4)
        Signature Algorithm: sha256WithRSAEncryption
        Issuer: C=US, ST=CA, L=SanFrancisco, O=Fort-Funston, OU=DMOSK, CN=DMOSK/name=EasyRSA/emailAddress=zakaz@359831-ca13528.tmweb.ru
        Validity
            Not Before: Apr 20 16:52:07 2021 GMT
            Not After : Apr 18 16:52:07 2031 GMT
        Subject: C=BR, ST=SP, L=Sao Paulo, O=eletrobras, OU=it, CN=ubuntu/name=postfixadmin/emailAddress=e.goldstein@sumare.ru
        Subject Public Key Info:
            Public Key Algorithm: rsaEncryption
                RSA Public-Key: (2048 bit)
                Modulus:
                    00:ba:66:4f:86:e9:9e:3b:73:8b:40:f6:a5:4c:87:
                    ad:1c:98:ac:7c:63:1f:cb:4d:bc:a1:53:3f:e0:f7:
                    7c:13:67:50:6e:8a:9e:b7:4b:ec:1e:85:ec:0d:12:
                    3f:1c:f6:7e:6d:2c:83:69:c2:5d:38:e1:ab:83:eb:
                    67:c3:16:dc:01:95:bf:14:e1:c9:48:7e:13:dd:b9:
                    ab:d0:9a:9d:de:2f:ee:49:06:1a:02:f3:db:31:aa:
                    dd:b9:6a:bc:90:c1:ac:42:8d:a2:9c:e9:98:d8:df:
                    82:3d:2b:e9:28:d4:63:f3:2b:37:78:db:2b:03:06:
                    c4:33:68:d5:22:74:14:3f:0b:c9:cd:24:4e:d2:fc:
                    ad:7f:18:07:b0:44:2a:08:24:ee:65:8c:09:74:f1:
                    69:01:ab:05:30:ed:82:07:bf:08:b8:bb:6b:3f:b9:
                    34:70:ae:25:ea:dc:0f:d7:ab:cf:b1:dd:36:18:7c:
                    5e:0d:52:26:35:6b:61:be:ef:e1:63:8e:e4:3b:8a:
                    eb:fb:e0:e9:26:12:0c:07:5f:de:ce:de:5b:fa:db:
                    3f:4f:a6:f3:c1:ee:43:f0:8b:59:e6:20:2d:3e:42:
                    8b:5f:1a:9d:86:79:07:64:6d:f0:27:57:57:ec:3e:
                    d7:a5:50:83:67:4f:13:b0:a6:c2:0e:2d:91:79:20:
                    59:2d
                Exponent: 65537 (0x10001)
        X509v3 extensions:
            X509v3 Basic Constraints: 
                CA:FALSE
            Netscape Comment: 
                Easy-RSA Generated Certificate
            X509v3 Subject Key Identifier: 
                5B:04:43:03:FE:38:7F:B1:46:40:72:BA:BC:33:E3:23:28:40:91:C1
            X509v3 Authority Key Identifier: 
                keyid:45:2B:D1:48:17:AE:94:D1:04:0C:AB:32:49:09:61:39:BF:A2:46:88
                DirName:/C=US/ST=CA/L=SanFrancisco/O=Fort-Funston/OU=DMOSK/CN=DMOSK/name=EasyRSA/emailAddress=zakaz@359831-ca13528.tmweb.ru
                serial:68:60:3D:21:74:DC:AE:50:D6:42:3D:E0:0C:EF:33:07:A8:3B:1B:EB

            X509v3 Extended Key Usage: 
                TLS Web Client Authentication
            X509v3 Key Usage: 
                Digital Signature
            X509v3 Subject Alternative Name: 
                DNS:ubuntu
    Signature Algorithm: sha256WithRSAEncryption
         92:e0:9f:a1:36:02:a1:a7:61:8d:1e:d4:25:41:56:5f:3a:fb:
         31:2e:e1:f4:8f:94:e3:7d:6c:57:2f:e5:70:2f:ae:1b:8e:fa:
         35:97:64:41:6d:7a:6d:09:08:07:d5:d5:c0:ed:af:ba:11:3a:
         44:6c:b0:7c:ab:d1:71:db:76:4e:09:d7:f4:8b:ac:4c:05:a6:
         bc:58:09:54:bf:43:bb:3e:cd:28:8b:4c:71:b3:03:b1:0b:02:
         a7:06:95:65:ce:8a:4d:f4:b2:51:5a:d0:2c:0c:7f:b3:ba:cb:
         7f:6b:06:65:c5:c5:52:d6:58:33:fa:da:0d:21:7e:81:14:ab:
         5c:d9:8c:7e:74:c8:04:29:0f:f2:ae:54:be:04:7f:0b:1e:7c:
         e6:d0:80:7e:6a:f8:de:80:5b:9d:4f:81:1d:e2:bb:f0:38:01:
         e2:db:10:9f:ba:11:15:6b:c9:ac:25:4e:52:d5:c9:0d:81:0a:
         28:07:d8:1a:7f:97:c3:c8:5b:9c:0c:18:24:d9:1d:06:ee:5f:
         f4:e7:cd:15:52:e9:46:06:57:9e:eb:44:8b:58:d8:3f:a1:ff:
         51:26:2b:25:5d:2b:23:f5:a2:57:33:9d:a7:6f:a1:9f:3e:36:
         cd:6f:40:4d:b6:48:d1:2e:e1:8a:c5:d0:19:45:e7:1a:b2:3b:
         d7:f9:d5:97
-----BEGIN CERTIFICATE-----
MIIFQjCCBCqgAwIBAgIBBDANBgkqhkiG9w0BAQsFADCBqDELMAkGA1UEBhMCVVMx
CzAJBgNVBAgTAkNBMRUwEwYDVQQHEwxTYW5GcmFuY2lzY28xFTATBgNVBAoTDEZv
cnQtRnVuc3RvbjEOMAwGA1UECxMFRE1PU0sxDjAMBgNVBAMTBURNT1NLMRAwDgYD
VQQpEwdFYXN5UlNBMSwwKgYJKoZIhvcNAQkBFh16YWthekAzNTk4MzEtY2ExMzUy
OC50bXdlYi5ydTAeFw0yMTA0MjAxNjUyMDdaFw0zMTA0MTgxNjUyMDdaMIGeMQsw
CQYDVQQGEwJCUjELMAkGA1UECBMCU1AxEjAQBgNVBAcTCVNhbyBQYXVsbzETMBEG
A1UEChMKZWxldHJvYnJhczELMAkGA1UECxMCaXQxDzANBgNVBAMTBnVidW50dTEV
MBMGA1UEKRMMcG9zdGZpeGFkbWluMSQwIgYJKoZIhvcNAQkBFhVlLmdvbGRzdGVp
bkBzdW1hcmUucnUwggEiMA0GCSqGSIb3DQEBAQUAA4IBDwAwggEKAoIBAQC6Zk+G
6Z47c4tA9qVMh60cmKx8Yx/LTbyhUz/g93wTZ1Buip63S+wehewNEj8c9n5tLINp
wl044auD62fDFtwBlb8U4clIfhPduavQmp3eL+5JBhoC89sxqt25aryQwaxCjaKc
6ZjY34I9K+ko1GPzKzd42ysDBsQzaNUidBQ/C8nNJE7S/K1/GAewRCoIJO5ljAl0
8WkBqwUw7YIHvwi4u2s/uTRwriXq3A/Xq8+x3TYYfF4NUiY1a2G+7+FjjuQ7iuv7
4OkmEgwHX97O3lv62z9PpvPB7kPwi1nmIC0+QotfGp2GeQdkbfAnV1fsPtelUINn
TxOwpsIOLZF5IFktAgMBAAGjggF9MIIBeTAJBgNVHRMEAjAAMC0GCWCGSAGG+EIB
DQQgFh5FYXN5LVJTQSBHZW5lcmF0ZWQgQ2VydGlmaWNhdGUwHQYDVR0OBBYEFFsE
QwP+OH+xRkByurwz4yMoQJHBMIHoBgNVHSMEgeAwgd2AFEUr0UgXrpTRBAyrMkkJ
YTm/okaIoYGupIGrMIGoMQswCQYDVQQGEwJVUzELMAkGA1UECBMCQ0ExFTATBgNV
BAcTDFNhbkZyYW5jaXNjbzEVMBMGA1UEChMMRm9ydC1GdW5zdG9uMQ4wDAYDVQQL
EwVETU9TSzEOMAwGA1UEAxMFRE1PU0sxEDAOBgNVBCkTB0Vhc3lSU0ExLDAqBgkq
hkiG9w0BCQEWHXpha2F6QDM1OTgzMS1jYTEzNTI4LnRtd2ViLnJ1ghRoYD0hdNyu
UNZCPeAM7zMHqDsb6zATBgNVHSUEDDAKBggrBgEFBQcDAjALBgNVHQ8EBAMCB4Aw
EQYDVR0RBAowCIIGdWJ1bnR1MA0GCSqGSIb3DQEBCwUAA4IBAQCS4J+hNgKhp2GN
HtQlQVZfOvsxLuH0j5TjfWxXL+VwL64bjvo1l2RBbXptCQgH1dXA7a+6ETpEbLB8
q9Fx23ZOCdf0i6xMBaa8WAlUv0O7Ps0oi0xxswOxCwKnBpVlzopN9LJRWtAsDH+z
ust/awZlxcVS1lgz+toNIX6BFKtc2Yx+dMgEKQ/yrlS+BH8LHnzm0IB+avjegFud
T4Ed4rvwOAHi2xCfuhEVa8msJU5S1ckNgQooB9gaf5fDyFucDBgk2R0G7l/0580V
UulGBlee60SLWNg/of9RJislXSsj9aJXM52nb6GfPjbNb0BNtkjRLuGKxdAZReca
sjvX+dWX
-----END CERTIFICATE-----
