Certificate:
    Data:
        Version: 3 (0x2)
        Serial Number: 1 (0x1)
        Signature Algorithm: sha256WithRSAEncryption
        Issuer: C=US, ST=CA, L=SanFrancisco, O=Fort-Funston, OU=DMOSK, CN=DMOSK/name=EasyRSA/emailAddress=zakaz@359831-ca13528.tmweb.ru
        Validity
            Not Before: Dec 30 11:17:37 2020 GMT
            Not After : Dec 28 11:17:37 2030 GMT
        Subject: C=US, ST=CA, L=SanFrancisco, O=Fort-Funston, OU=DMOSK, CN=server/name=EasyRSA/emailAddress=zakaz@359831-ca13528.tmweb.ru
        Subject Public Key Info:
            Public Key Algorithm: rsaEncryption
                RSA Public-Key: (2048 bit)
                Modulus:
                    00:cd:3c:2a:45:c2:2f:56:cf:c6:bf:c4:09:b3:10:
                    d3:ba:e9:2e:9c:5d:97:9d:d7:bf:51:a5:50:4d:9b:
                    d8:2f:5a:9d:3f:05:18:4b:c7:8f:b1:c1:ca:ac:5a:
                    09:0d:bd:60:92:24:8b:3f:b7:1f:13:5a:e2:92:33:
                    dd:e3:7e:77:20:4c:7c:d6:52:f8:f3:2b:7d:d4:71:
                    6e:e5:75:ef:87:ef:cd:49:e1:34:60:9c:b8:4b:a0:
                    7e:6b:58:94:fa:89:fc:5a:49:79:41:34:13:68:bf:
                    39:67:aa:16:99:7a:aa:c4:af:92:dd:91:47:21:fb:
                    cb:e6:d7:f7:cb:77:95:71:f9:f8:a9:51:29:ec:76:
                    57:c3:ff:9e:68:90:4c:3f:7f:80:a1:fa:76:86:33:
                    02:33:6e:ca:38:11:95:20:12:5a:fe:60:76:b6:57:
                    c3:dc:cc:7b:97:d8:22:1a:27:a0:79:5d:0b:c3:b5:
                    d7:0c:62:4c:df:ed:2f:26:f3:92:57:cf:d4:d8:4a:
                    d3:b5:07:5d:ba:67:ff:7e:bd:84:24:98:a5:12:49:
                    22:9e:cf:2d:39:ef:77:74:bb:53:b4:5c:c2:38:3a:
                    f0:79:22:5c:9d:c7:1b:a1:5b:6d:f8:5f:40:d2:af:
                    c5:5b:5b:4e:fc:b7:42:9d:84:7e:c9:b3:74:87:88:
                    ab:e9
                Exponent: 65537 (0x10001)
        X509v3 extensions:
            X509v3 Basic Constraints: 
                CA:FALSE
            Netscape Cert Type: 
                SSL Server
            Netscape Comment: 
                Easy-RSA Generated Server Certificate
            X509v3 Subject Key Identifier: 
                29:A6:A9:09:71:07:A7:6C:8B:B3:BB:8B:C6:F9:8C:32:AF:43:53:FA
            X509v3 Authority Key Identifier: 
                keyid:45:2B:D1:48:17:AE:94:D1:04:0C:AB:32:49:09:61:39:BF:A2:46:88
                DirName:/C=US/ST=CA/L=SanFrancisco/O=Fort-Funston/OU=DMOSK/CN=DMOSK/name=EasyRSA/emailAddress=zakaz@359831-ca13528.tmweb.ru
                serial:68:60:3D:21:74:DC:AE:50:D6:42:3D:E0:0C:EF:33:07:A8:3B:1B:EB

            X509v3 Extended Key Usage: 
                TLS Web Server Authentication
            X509v3 Key Usage: 
                Digital Signature, Key Encipherment
            X509v3 Subject Alternative Name: 
                DNS:server
    Signature Algorithm: sha256WithRSAEncryption
         61:81:46:83:15:92:7f:dc:95:04:ad:f4:22:24:63:ec:96:48:
         b2:1e:37:80:ff:d2:5d:10:7a:a4:28:47:ca:1b:50:31:d6:ae:
         49:5b:33:e7:44:e3:b2:eb:4b:59:28:ee:97:0b:77:f8:fd:64:
         6b:dc:e7:07:94:d4:82:df:87:78:a7:c2:05:cd:06:90:51:6c:
         f9:fe:e1:95:80:a9:82:53:11:49:90:12:82:85:73:ad:58:80:
         ba:6e:a8:79:04:a2:70:12:79:36:a8:46:cf:ad:92:25:bf:88:
         98:25:20:45:28:54:c3:1d:35:7e:c8:42:9b:81:52:60:19:b3:
         97:40:7b:e0:ed:b2:57:26:88:ab:04:e4:91:79:b9:36:fb:e1:
         07:58:00:ab:a4:c3:57:60:b6:6a:3f:96:92:7f:c3:1e:11:d2:
         71:a1:84:d5:ac:44:64:73:50:7e:4f:8e:8a:a5:6e:a1:84:45:
         f5:b0:98:be:d1:4e:59:eb:c2:18:96:ba:bb:f5:a1:c0:97:ee:
         97:a8:d5:df:84:a8:51:fc:bd:70:ec:ec:9d:0e:7a:f6:a2:88:
         8d:cd:de:45:9e:67:92:85:e8:a7:be:d1:2a:af:ed:bc:de:7b:
         28:5b:a6:63:98:64:20:12:63:d5:7f:29:17:2e:d1:b9:95:c8:
         15:fd:40:1d
-----BEGIN CERTIFICATE-----
MIIFZzCCBE+gAwIBAgIBATANBgkqhkiG9w0BAQsFADCBqDELMAkGA1UEBhMCVVMx
CzAJBgNVBAgTAkNBMRUwEwYDVQQHEwxTYW5GcmFuY2lzY28xFTATBgNVBAoTDEZv
cnQtRnVuc3RvbjEOMAwGA1UECxMFRE1PU0sxDjAMBgNVBAMTBURNT1NLMRAwDgYD
VQQpEwdFYXN5UlNBMSwwKgYJKoZIhvcNAQkBFh16YWthekAzNTk4MzEtY2ExMzUy
OC50bXdlYi5ydTAeFw0yMDEyMzAxMTE3MzdaFw0zMDEyMjgxMTE3MzdaMIGpMQsw
CQYDVQQGEwJVUzELMAkGA1UECBMCQ0ExFTATBgNVBAcTDFNhbkZyYW5jaXNjbzEV
MBMGA1UEChMMRm9ydC1GdW5zdG9uMQ4wDAYDVQQLEwVETU9TSzEPMA0GA1UEAxMG
c2VydmVyMRAwDgYDVQQpEwdFYXN5UlNBMSwwKgYJKoZIhvcNAQkBFh16YWthekAz
NTk4MzEtY2ExMzUyOC50bXdlYi5ydTCCASIwDQYJKoZIhvcNAQEBBQADggEPADCC
AQoCggEBAM08KkXCL1bPxr/ECbMQ07rpLpxdl53Xv1GlUE2b2C9anT8FGEvHj7HB
yqxaCQ29YJIkiz+3HxNa4pIz3eN+dyBMfNZS+PMrfdRxbuV174fvzUnhNGCcuEug
fmtYlPqJ/FpJeUE0E2i/OWeqFpl6qsSvkt2RRyH7y+bX98t3lXH5+KlRKex2V8P/
nmiQTD9/gKH6doYzAjNuyjgRlSASWv5gdrZXw9zMe5fYIhonoHldC8O11wxiTN/t
LybzklfP1NhK07UHXbpn/369hCSYpRJJIp7PLTnvd3S7U7Rcwjg68HkiXJ3HG6Fb
bfhfQNKvxVtbTvy3Qp2EfsmzdIeIq+kCAwEAAaOCAZcwggGTMAkGA1UdEwQCMAAw
EQYJYIZIAYb4QgEBBAQDAgZAMDQGCWCGSAGG+EIBDQQnFiVFYXN5LVJTQSBHZW5l
cmF0ZWQgU2VydmVyIENlcnRpZmljYXRlMB0GA1UdDgQWBBQppqkJcQenbIuzu4vG
+Ywyr0NT+jCB6AYDVR0jBIHgMIHdgBRFK9FIF66U0QQMqzJJCWE5v6JGiKGBrqSB
qzCBqDELMAkGA1UEBhMCVVMxCzAJBgNVBAgTAkNBMRUwEwYDVQQHEwxTYW5GcmFu
Y2lzY28xFTATBgNVBAoTDEZvcnQtRnVuc3RvbjEOMAwGA1UECxMFRE1PU0sxDjAM
BgNVBAMTBURNT1NLMRAwDgYDVQQpEwdFYXN5UlNBMSwwKgYJKoZIhvcNAQkBFh16
YWthekAzNTk4MzEtY2ExMzUyOC50bXdlYi5ydYIUaGA9IXTcrlDWQj3gDO8zB6g7
G+swEwYDVR0lBAwwCgYIKwYBBQUHAwEwCwYDVR0PBAQDAgWgMBEGA1UdEQQKMAiC
BnNlcnZlcjANBgkqhkiG9w0BAQsFAAOCAQEAYYFGgxWSf9yVBK30IiRj7JZIsh43
gP/SXRB6pChHyhtQMdauSVsz50TjsutLWSjulwt3+P1ka9znB5TUgt+HeKfCBc0G
kFFs+f7hlYCpglMRSZASgoVzrViAum6oeQSicBJ5NqhGz62SJb+ImCUgRShUwx01
fshCm4FSYBmzl0B74O2yVyaIqwTkkXm5NvvhB1gAq6TDV2C2aj+Wkn/DHhHScaGE
1axEZHNQfk+OiqVuoYRF9bCYvtFOWevCGJa6u/WhwJful6jV34SoUfy9cOzsnQ56
9qKIjc3eRZ5nkoXop77RKq/tvN57KFumY5hkIBJj1X8pFy7RuZXIFf1AHQ==
-----END CERTIFICATE-----
